(lp0
(dp1
Vfile_name
p2
Varthur_conan_doyle.txt
p3
sVsurname
p4
VConan Doyle
p5
sVname
p6
VArthur
p7
sVindex
p8
I0
sa(dp9
Vfile_name
p10
Vcharles_darwin.txt
p11
sVsurname
p12
VDarwin
p13
sVname
p14
VCharles
p15
sVindex
p16
I1
sa(dp17
Vfile_name
p18
Vcharles_dickens.txt
p19
sVsurname
p20
VDickens
p21
sVname
p22
VCharles
p23
sVindex
p24
I2
sa(dp25
Vfile_name
p26
Vdaniel_defoe.txt
p27
sVsurname
p28
VDefoe
p29
sVname
p30
VDaniel
p31
sVindex
p32
I3
sa(dp33
Vfile_name
p34
Vhoward_phillips_lovecraft.txt
p35
sVsurname
p36
VLovecraft
p37
sVname
p38
VHoward Phillips
p39
sVindex
p40
I4
sa(dp41
Vfile_name
p42
Vjames_joyce.txt
p43
sVsurname
p44
VJoyce
p45
sVname
p46
VJames
p47
sVindex
p48
I5
sa(dp49
Vfile_name
p50
Vjane_austen.txt
p51
sVsurname
p52
VAusten
p53
sVname
p54
VJane
p55
sVindex
p56
I6
sa(dp57
Vfile_name
p58
Vjonathan_swift.txt
p59
sVsurname
p60
VSwift
p61
sVname
p62
VJonathan
p63
sVindex
p64
I7
sa(dp65
Vfile_name
p66
Vmark_twain.txt
p67
sVsurname
p68
VTwain
p69
sVname
p70
VMark
p71
sVindex
p72
I8
sa(dp73
Vfile_name
p74
Vmary_shelley.txt
p75
sVsurname
p76
VShelley
p77
sVname
p78
VMary
p79
sVindex
p80
I9
sa(dp81
Vfile_name
p82
Voscar_wilde.txt
p83
sVsurname
p84
VWilde
p85
sVname
p86
VOscar
p87
sVindex
p88
I10
sa(dp89
Vfile_name
p90
Vrobert_louis_stevenson.txt
p91
sVsurname
p92
VStevenson
p93
sVname
p94
VRobert Louis
p95
sVindex
p96
I11
sa(dp97
Vfile_name
p98
Vvirginia_woolf.txt
p99
sVsurname
p100
VWoolf
p101
sVname
p102
VVirginia
p103
sVindex
p104
I12
sa.